; Function Attrs: mustprogress uwtable
define hidden noundef i64 @_ZN11mpf_manager10mk_max_expEj(ptr noundef nonnull align 8 dereferenceable(840) %this, i32 noundef %ebits) local_unnamed_addr #5 align 2 {
entry:
  %m_mpz_manager = getelementptr inbounds i8, ptr %this, i64 728
  %0 = load ptr, ptr %m_mpz_manager, align 8
  %m_powers2 = getelementptr inbounds i8, ptr %this, i64 736
  %sub = add i32 %ebits, -1
  %call = tail call noundef nonnull align 8 dereferenceable(16) ptr @_ZN11mpf_manager7powers22m1Ejb(ptr noundef nonnull align 8 dereferenceable(104) %m_powers2, i32 noundef %sub, i1 noundef zeroext false)
  %call2 = tail call noundef i64 @_ZNK11mpz_managerILb0EE9get_int64ERK3mpz(ptr noundef nonnull align 8 dereferenceable(600) %0, ptr noundef nonnull align 8 dereferenceable(16) %call)
  ret i64 %call2
}